; Function Attrs: mustprogress uwtable
define hidden noundef i32 @_ZN2bv6solver7get_varEPN3euf5enodeE(ptr noundef nonnull align 8 dereferenceable(640) %0, ptr noundef %1) local_unnamed_addr #3 align 2 {
  %3 = getelementptr inbounds nuw i8, ptr %0, i64 12
  %4 = load i32, ptr %3, align 4, !tbaa !65
  %5 = getelementptr inbounds nuw i8, ptr %1, i64 88
  %6 = load i32, ptr %5, align 8
  %7 = icmp ugt i32 %6, -257
  br i1 %7, label %_ZNK3euf5enode10get_th_varEi.exit.thread, label %.preheader.i.i

.preheader.i.i:                                   ; preds = %2, %12
  %.0.i.i = phi ptr [ %14, %12 ], [ %5, %2 ]
  %8 = load i32, ptr %.0.i.i, align 8
  %9 = shl i32 %8, 24
  %10 = ashr exact i32 %9, 24
  %11 = icmp eq i32 %4, %10
  br i1 %11, label %_ZNK3euf5enode10get_th_varEi.exit, label %12

12:                                               ; preds = %.preheader.i.i
  %13 = getelementptr inbounds nuw i8, ptr %.0.i.i, i64 8
  %14 = load ptr, ptr %13, align 8, !tbaa !76
  %.not.i.i = icmp eq ptr %14, null
  br i1 %.not.i.i, label %_ZNK3euf5enode10get_th_varEi.exit.thread, label %.preheader.i.i, !llvm.loop !79

_ZNK3euf5enode10get_th_varEi.exit:                ; preds = %.preheader.i.i
  %15 = ashr i32 %8, 8
  %16 = icmp eq i32 %15, -1
  br i1 %16, label %_ZNK3euf5enode10get_th_varEi.exit.thread, label %26

_ZNK3euf5enode10get_th_varEi.exit.thread:         ; preds = %12, %2, %_ZNK3euf5enode10get_th_varEi.exit
  %17 = load ptr, ptr %0, align 8, !tbaa !42
  %18 = getelementptr inbounds nuw i8, ptr %17, i64 528
  %19 = load ptr, ptr %18, align 8
  %20 = tail call noundef i32 %19(ptr noundef nonnull align 8 dereferenceable(640) %0, ptr noundef nonnull %1)
  %21 = getelementptr inbounds nuw i8, ptr %0, i64 128
  %22 = load ptr, ptr %1, align 8, !tbaa !80
  %23 = tail call noundef ptr @_ZNK4expr8get_sortEv(ptr noundef nonnull align 4 dereferenceable(16) %22)
  %24 = tail call noundef zeroext i1 @_ZNK14bv_recognizers10is_bv_sortEPK4sort(ptr noundef nonnull align 4 dereferenceable(4) %21, ptr noundef %23)
  br i1 %24, label %25, label %26

25:                                               ; preds = %_ZNK3euf5enode10get_th_varEi.exit.thread
  tail call void @_ZN2bv6solver7mk_bitsEi(ptr noundef nonnull align 8 dereferenceable(640) %0, i32 noundef %20)
  br label %26

26:                                               ; preds = %_ZNK3euf5enode10get_th_varEi.exit.thread, %25, %_ZNK3euf5enode10get_th_varEi.exit
  %.0 = phi i32 [ %20, %25 ], [ %20, %_ZNK3euf5enode10get_th_varEi.exit.thread ], [ %15, %_ZNK3euf5enode10get_th_varEi.exit ]
  ret i32 %.0
}